; Function Attrs: mustprogress nounwind uwtable
define dso_local void @_ZN4llvm9SetTheory11addExpanderENS_9StringRefESt10unique_ptrINS0_8ExpanderESt14default_deleteIS3_EE(ptr noundef nonnull align 8 dereferenceable(96) %0, ptr %1, i64 %2, ptr noundef captures(none) %3) local_unnamed_addr #1 align 2 {
  %5 = getelementptr inbounds nuw i8, ptr %0, i64 72
  %6 = tail call noundef i32 @_ZN4llvm13StringMapImpl4hashENS_9StringRefE(ptr %1, i64 %2) #18
  %7 = tail call { ptr, i8 } @_ZN4llvm9StringMapISt10unique_ptrINS_9SetTheory8ExpanderESt14default_deleteIS3_EENS_15MallocAllocatorEE21try_emplace_with_hashIJEEESt4pairINS_17StringMapIteratorIS6_EEbENS_9StringRefEjDpOT_(ptr noundef nonnull align 8 dereferenceable(24) %5, ptr %1, i64 %2, i32 noundef %6)
  %.fca.0.extract.i = extractvalue { ptr, i8 } %7, 0
  %8 = load ptr, ptr %.fca.0.extract.i, align 8
  %9 = getelementptr inbounds nuw i8, ptr %8, i64 8
  %10 = load ptr, ptr %3, align 8
  store ptr null, ptr %3, align 8
  %11 = load ptr, ptr %9, align 8
  store ptr %10, ptr %9, align 8
  %.not.i.i.i.i = icmp eq ptr %11, null
  br i1 %.not.i.i.i.i, label %_ZNSt10unique_ptrIN4llvm9SetTheory8ExpanderESt14default_deleteIS2_EEaSEOS5_.exit, label %_ZNKSt14default_deleteIN4llvm9SetTheory8ExpanderEEclEPS2_.exit.i.i.i.i

_ZNKSt14default_deleteIN4llvm9SetTheory8ExpanderEEclEPS2_.exit.i.i.i.i: ; preds = %4
  %12 = load ptr, ptr %11, align 8
  %13 = getelementptr inbounds nuw i8, ptr %12, i64 16
  %14 = load ptr, ptr %13, align 8
  tail call void %14(ptr noundef nonnull align 8 dereferenceable(8) %11) #18
  br label %_ZNSt10unique_ptrIN4llvm9SetTheory8ExpanderESt14default_deleteIS2_EEaSEOS5_.exit

_ZNSt10unique_ptrIN4llvm9SetTheory8ExpanderESt14default_deleteIS2_EEaSEOS5_.exit: ; preds = %4, %_ZNKSt14default_deleteIN4llvm9SetTheory8ExpanderEEclEPS2_.exit.i.i.i.i
  ret void
}